
 XF86SUP

 Start     Length     Name                   Class
 0001:0000 04D7CH     _DATA                  DATA
 0001:4D7C 00000H     CONST                  CONST
 0001:4D7C 00000H     _BSS                   BSS
 0002:0000 044D4H     _TEXT                  CODE

 Origin   Group
 0001:0   DGROUP

  Address         Publics by Name

 0001:07DA       console
 0002:013E       ConStrat
 0000:0000  Imp  DOS16PUTMESSAGE      (MSG.1)
 0001:001E       IoDev
 0002:000E       IOStrat
 0001:0000       MapDev
 0002:0000       MapStrat
 0001:07BC       ptms
 0001:003C       ptyp0
 0001:005A       ptyp1
 0001:0078       ptyp2
 0001:0096       ptyp3
 0001:00B4       ptyp4
 0001:00D2       ptyp5
 0001:00F0       ptyp6
 0001:010E       ptyp7
 0001:012C       ptyp8
 0001:014A       ptyp9
 0001:0168       ptypa
 0001:0186       ptypb
 0001:01A4       ptypc
 0001:01C2       ptypd
 0001:01E0       ptype
 0001:01FE       ptypf
 0001:021C       ptyq0
 0001:023A       ptyq1
 0001:0258       ptyq2
 0001:0276       ptyq3
 0001:0294       ptyq4
 0001:02B2       ptyq5
 0001:02D0       ptyq6
 0001:02EE       ptyq7
 0001:030C       ptyq8
 0001:032A       ptyq9
 0001:0348       ptyqa
 0001:0366       ptyqb
 0001:0384       ptyqc
 0001:03A2       ptyqd
 0001:03C0       ptyqe
 0001:03DE       ptyqf
 0002:009E       PtyStrat
 0001:03FC       ttyp0
 0001:041A       ttyp1
 0001:0438       ttyp2
 0001:0456       ttyp3
 0001:0474       ttyp4
 0001:0492       ttyp5
 0001:04B0       ttyp6
 0001:04CE       ttyp7
 0001:04EC       ttyp8
 0001:050A       ttyp9
 0001:0528       ttypa
 0001:0546       ttypb
 0001:0564       ttypc
 0001:0582       ttypd
 0001:05A0       ttype
 0001:05BE       ttypf
 0001:05DC       ttyq0
 0001:05FA       ttyq1
 0001:0618       ttyq2
 0001:0636       ttyq3
 0001:0654       ttyq4
 0001:0672       ttyq5
 0001:0690       ttyq6
 0001:06AE       ttyq7
 0001:06CC       ttyq8
 0001:06EA       ttyq9
 0001:0708       ttyqa
 0001:0726       ttyqb
 0001:0744       ttyqc
 0001:0762       ttyqd
 0001:0780       ttyqe
 0001:079E       ttyqf
 0002:012D       TtyStrat
 0002:0419       _acquire_gdt
 0002:033C       _AllocBuf
 0002:026C       _Block
 0002:118C       _block_read
 0002:127A       _block_write
 0002:3D2A       _bmove
 0002:3D4E       _bset
 0001:0BBE       _buf1
 0001:0BC2       _buf2
 0001:0BC6       _buf3
 0002:039A       _CloseSEV
 0002:2434       _com_ioctl_fake
 0001:4BC6       _conbuf
 0001:0BB4       _concnt
 0002:3484       _conidc
 0001:0BB0       _conlen
 0001:0BAE       _conpid
 0001:0BB2       _conpos
 0001:0BBA       _conrsel
 0001:0BB6       _constate
 0002:3B02       _constrategy
 0001:0BAA       _constty
 0002:04EA       _cons_idc_init
 0002:050C       _cons_idc_send
 0002:3736       _con_close
 0002:3786       _con_flush
 0002:4358       _con_init
 0002:37A6       _con_ioctl
 0002:34DE       _con_ndr
 0002:36F2       _con_open
 0002:354C       _con_read
 0002:3618       _con_write
 0001:0888       _dbgflag
 0001:4D5C       _dbg_msg
 0001:07F8       _Device_Help
 0001:4D7B       _DiscardData
 0002:44D2       _DiscardProc
 0001:4BE6       _done_init
 0002:3C82       _drvid
 0002:3CE8       _drvname
 0002:3438       _getb
 0002:40C8       _getc
 0002:0371       _GetPGRP
 0002:030C       _GetPID
 0002:0BFA       _handle_eof
 0001:4BCA       _hexcvt
 0002:3C30       _i2ascii
 0002:3C20       _i2hex
 0002:41F0       _init_once
 0002:014C       _int3
 0002:0650       _iostrategy
 0002:0495       _io_call
 0001:0889       _io_gdt32
 0002:4332       _io_init
 0002:05DE       _io_open
 0002:031B       _LockSeg
 0002:337C       _makespace
 0001:08AA       _maps
 0002:0AEE       _mapstrategy
 0002:42DE       _map_init
 0002:0A8C       _map_open
 0001:4D30       _once_msg
 0002:0380       _OpenSEV
 0001:4BDC       _p10
 0002:0233       _P2V
 0002:417E       _pgsignal
 0002:0181       _Pmap
 0002:03B4       _PostSEV
 0002:2280       _ptcstrategy
 0002:1AE6       _ptc_close
 0002:4394       _ptc_init
 0002:1BA2       _ptc_ndr
 0002:19D0       _ptc_open
 0002:1C4E       _ptc_read
 0002:21EE       _ptc_select
 0002:212A       _ptc_shutdown
 0002:21A0       _ptc_sinput
 0002:21CC       _ptc_soutput
 0002:1EAC       _ptc_write
 0002:331A       _ptmsstrategy
 0002:3208       _ptms_ioctl
 0002:0F14       _ptsstop
 0002:18BE       _ptsstrategy
 0002:139C       _pts_close
 0002:44CE       _pts_init
 0002:155C       _pts_ndr
 0002:132E       _pts_open
 0002:13E4       _pts_read
 0002:188E       _pts_select
 0002:188A       _pts_shutdown
 0002:1840       _pts_sinput
 0002:1868       _pts_soutput
 0002:15D4       _pts_write
 0002:17C0       _ptx_iflush
 0002:259E       _ptx_ioctl
 0002:1800       _ptx_oflush
 0002:01D5       _Punmap
 0002:3412       _putb
 0002:4116       _putc
 0002:40AE       _qinit
 0001:4D06       _qmask
 0001:0804       _qmutex
 0002:3C0A       _qrelease
 0002:3BD2       _qrequest
 0002:418A       _read_args
 0002:03D8       _ResetSEV
 0002:3FB4       _rpqdeque
 0002:3FFA       _rpqdiscard
 0002:3F4A       _rpqenque
 0002:3F30       _rpqinit
 0002:02A2       _Run
 0002:1232       _run_read
 0002:12F0       _run_write
 0002:021A       _SegLimit
 0002:3EA2       _selarm
 0002:3D6C       _selopen
 0002:3EDA       _selraise
 0002:3DDC       _selreg
 0002:02F1       _SemClear
 0002:02CC       _SemRequest
 0002:02B7       _SendEvent
 0002:4150       _sendsig
 0002:23BE       _setxty
 0002:1214       _start_reader
 0002:0ED8       _ttecho
 0002:0F46       _ttflush
 0002:0B60       _ttinit
 0002:0FA4       _ttinput
 0002:0D7C       _ttoutput
 0002:0C86       _ttread
 0002:0BCA       _ttstart
 0002:1140       _ttwait
 0001:4C76       _ttydefchars
 0001:0B2A       _ttys
 0002:01F1       _Verify
 0001:4D0E       _version_msg
 0002:0000       __acrtused

  Address         Publics by Value

 0000:0000  Imp  DOS16PUTMESSAGE      (MSG.1)
 0001:0000       MapDev
 0001:001E       IoDev
 0001:003C       ptyp0
 0001:005A       ptyp1
 0001:0078       ptyp2
 0001:0096       ptyp3
 0001:00B4       ptyp4
 0001:00D2       ptyp5
 0001:00F0       ptyp6
 0001:010E       ptyp7
 0001:012C       ptyp8
 0001:014A       ptyp9
 0001:0168       ptypa
 0001:0186       ptypb
 0001:01A4       ptypc
 0001:01C2       ptypd
 0001:01E0       ptype
 0001:01FE       ptypf
 0001:021C       ptyq0
 0001:023A       ptyq1
 0001:0258       ptyq2
 0001:0276       ptyq3
 0001:0294       ptyq4
 0001:02B2       ptyq5
 0001:02D0       ptyq6
 0001:02EE       ptyq7
 0001:030C       ptyq8
 0001:032A       ptyq9
 0001:0348       ptyqa
 0001:0366       ptyqb
 0001:0384       ptyqc
 0001:03A2       ptyqd
 0001:03C0       ptyqe
 0001:03DE       ptyqf
 0001:03FC       ttyp0
 0001:041A       ttyp1
 0001:0438       ttyp2
 0001:0456       ttyp3
 0001:0474       ttyp4
 0001:0492       ttyp5
 0001:04B0       ttyp6
 0001:04CE       ttyp7
 0001:04EC       ttyp8
 0001:050A       ttyp9
 0001:0528       ttypa
 0001:0546       ttypb
 0001:0564       ttypc
 0001:0582       ttypd
 0001:05A0       ttype
 0001:05BE       ttypf
 0001:05DC       ttyq0
 0001:05FA       ttyq1
 0001:0618       ttyq2
 0001:0636       ttyq3
 0001:0654       ttyq4
 0001:0672       ttyq5
 0001:0690       ttyq6
 0001:06AE       ttyq7
 0001:06CC       ttyq8
 0001:06EA       ttyq9
 0001:0708       ttyqa
 0001:0726       ttyqb
 0001:0744       ttyqc
 0001:0762       ttyqd
 0001:0780       ttyqe
 0001:079E       ttyqf
 0001:07BC       ptms
 0001:07DA       console
 0001:07F8       _Device_Help
 0001:0804       _qmutex
 0001:0888       _dbgflag
 0001:0889       _io_gdt32
 0001:08AA       _maps
 0001:0B2A       _ttys
 0001:0BAA       _constty
 0001:0BAE       _conpid
 0001:0BB0       _conlen
 0001:0BB2       _conpos
 0001:0BB4       _concnt
 0001:0BB6       _constate
 0001:0BBA       _conrsel
 0001:0BBE       _buf1
 0001:0BC2       _buf2
 0001:0BC6       _buf3
 0001:4BC6       _conbuf
 0001:4BCA       _hexcvt
 0001:4BDC       _p10
 0001:4BE6       _done_init
 0001:4C76       _ttydefchars
 0001:4D06       _qmask
 0001:4D0E       _version_msg
 0001:4D30       _once_msg
 0001:4D5C       _dbg_msg
 0001:4D7B       _DiscardData
 0002:0000       MapStrat
 0002:0000       __acrtused
 0002:000E       IOStrat
 0002:009E       PtyStrat
 0002:012D       TtyStrat
 0002:013E       ConStrat
 0002:014C       _int3
 0002:0181       _Pmap
 0002:01D5       _Punmap
 0002:01F1       _Verify
 0002:021A       _SegLimit
 0002:0233       _P2V
 0002:026C       _Block
 0002:02A2       _Run
 0002:02B7       _SendEvent
 0002:02CC       _SemRequest
 0002:02F1       _SemClear
 0002:030C       _GetPID
 0002:031B       _LockSeg
 0002:033C       _AllocBuf
 0002:0371       _GetPGRP
 0002:0380       _OpenSEV
 0002:039A       _CloseSEV
 0002:03B4       _PostSEV
 0002:03D8       _ResetSEV
 0002:0419       _acquire_gdt
 0002:0495       _io_call
 0002:04EA       _cons_idc_init
 0002:050C       _cons_idc_send
 0002:05DE       _io_open
 0002:0650       _iostrategy
 0002:0A8C       _map_open
 0002:0AEE       _mapstrategy
 0002:0B60       _ttinit
 0002:0BCA       _ttstart
 0002:0BFA       _handle_eof
 0002:0C86       _ttread
 0002:0D7C       _ttoutput
 0002:0ED8       _ttecho
 0002:0F14       _ptsstop
 0002:0F46       _ttflush
 0002:0FA4       _ttinput
 0002:1140       _ttwait
 0002:118C       _block_read
 0002:1214       _start_reader
 0002:1232       _run_read
 0002:127A       _block_write
 0002:12F0       _run_write
 0002:132E       _pts_open
 0002:139C       _pts_close
 0002:13E4       _pts_read
 0002:155C       _pts_ndr
 0002:15D4       _pts_write
 0002:17C0       _ptx_iflush
 0002:1800       _ptx_oflush
 0002:1840       _pts_sinput
 0002:1868       _pts_soutput
 0002:188A       _pts_shutdown
 0002:188E       _pts_select
 0002:18BE       _ptsstrategy
 0002:19D0       _ptc_open
 0002:1AE6       _ptc_close
 0002:1BA2       _ptc_ndr
 0002:1C4E       _ptc_read
 0002:1EAC       _ptc_write
 0002:212A       _ptc_shutdown
 0002:21A0       _ptc_sinput
 0002:21CC       _ptc_soutput
 0002:21EE       _ptc_select
 0002:2280       _ptcstrategy
 0002:23BE       _setxty
 0002:2434       _com_ioctl_fake
 0002:259E       _ptx_ioctl
 0002:3208       _ptms_ioctl
 0002:331A       _ptmsstrategy
 0002:337C       _makespace
 0002:3412       _putb
 0002:3438       _getb
 0002:3484       _conidc
 0002:34DE       _con_ndr
 0002:354C       _con_read
 0002:3618       _con_write
 0002:36F2       _con_open
 0002:3736       _con_close
 0002:3786       _con_flush
 0002:37A6       _con_ioctl
 0002:3B02       _constrategy
 0002:3BD2       _qrequest
 0002:3C0A       _qrelease
 0002:3C20       _i2hex
 0002:3C30       _i2ascii
 0002:3C82       _drvid
 0002:3CE8       _drvname
 0002:3D2A       _bmove
 0002:3D4E       _bset
 0002:3D6C       _selopen
 0002:3DDC       _selreg
 0002:3EA2       _selarm
 0002:3EDA       _selraise
 0002:3F30       _rpqinit
 0002:3F4A       _rpqenque
 0002:3FB4       _rpqdeque
 0002:3FFA       _rpqdiscard
 0002:40AE       _qinit
 0002:40C8       _getc
 0002:4116       _putc
 0002:4150       _sendsig
 0002:417E       _pgsignal
 0002:418A       _read_args
 0002:41F0       _init_once
 0002:42DE       _map_init
 0002:4332       _io_init
 0002:4358       _con_init
 0002:4394       _ptc_init
 0002:44CE       _pts_init
 0002:44D2       _DiscardProc
